target datalayout = "e-m:e-p270:32:32-p271:32:32-p272:64:64-i64:64-i128:128-f80:128-n8:16:32:64-S128"
target triple = "x86_64-pc-linux-gnu"

%struct.Vec_Int_t_ = type { i32, i32, ptr }
%struct.Abc_Ntk_t_ = type { i32, i32, ptr, ptr, ptr, ptr, ptr, ptr, ptr, ptr, ptr, ptr, ptr, [11 x i32], i32, i32, i32, i32, ptr, i32, ptr, ptr, i32, i32, i32, double, i32, %struct.Vec_Int_t_, ptr, ptr, ptr, ptr, ptr, float, i32, ptr, ptr, ptr, ptr, ptr, ptr, ptr, ptr, ptr, ptr, ptr, ptr, ptr, ptr, ptr, ptr, ptr, ptr, ptr, ptr, ptr, ptr }

@stdout = external global ptr, align 8
@.str.9 = private unnamed_addr constant [2 x i8] c"w\00", align 1
@.str.11 = private unnamed_addr constant [39 x i8] c"# Benchmark \22%s\22 written by ABC on %s\0A\00", align 1
@.str.26 = private unnamed_addr constant [48 x i8] c"Io_WriteMoPlaM(): Cannot open the output file.\0A\00", align 1

; Function Attrs: nounwind uwtable
define i32 @Io_WriteMoPlaM(ptr noundef %0, ptr noundef %1, i32 noundef %2) #0 {
  %4 = alloca i32, align 4
  %5 = alloca ptr, align 8
  %6 = alloca ptr, align 8
  %7 = alloca i32, align 4
  %8 = alloca ptr, align 8
  %9 = alloca i32, align 4
  store ptr %0, ptr %5, align 8, !tbaa !8
  store ptr %1, ptr %6, align 8, !tbaa !17
  store i32 %2, ptr %7, align 4, !tbaa !10
  call void @llvm.lifetime.start.p0(i64 8, ptr %8) #9
  %10 = load ptr, ptr %6, align 8, !tbaa !17
  %11 = call noalias ptr @fopen(ptr noundef %10, ptr noundef @.str.9)
  store ptr %11, ptr %8, align 8, !tbaa !3
  %12 = load ptr, ptr %8, align 8, !tbaa !3
  %13 = icmp eq ptr %12, null
  br i1 %13, label %14, label %17

14:                                               ; preds = %3
  %15 = load ptr, ptr @stdout, align 8, !tbaa !3
  %16 = call i32 (ptr, ptr, ...) @fprintf(ptr noundef %15, ptr noundef @.str.26) #9
  store i32 0, ptr %4, align 4
  store i32 1, ptr %9, align 4
  br label %30

17:                                               ; preds = %3
  %18 = load ptr, ptr %8, align 8, !tbaa !3
  %19 = load ptr, ptr %5, align 8, !tbaa !8
  %20 = getelementptr inbounds nuw %struct.Abc_Ntk_t_, ptr %19, i32 0, i32 2
  %21 = load ptr, ptr %20, align 8, !tbaa !54
  %22 = call ptr (...) @Extra_TimeStamp()
  %23 = call i32 (ptr, ptr, ...) @fprintf(ptr noundef %18, ptr noundef @.str.11, ptr noundef %21, ptr noundef %22) #9
  %24 = load ptr, ptr %8, align 8, !tbaa !3
  %25 = load ptr, ptr %5, align 8, !tbaa !8
  %26 = load i32, ptr %7, align 4, !tbaa !10
  %27 = call i32 @Io_WriteMoPlaOneM(ptr noundef %24, ptr noundef %25, i32 noundef %26)
  %28 = load ptr, ptr %8, align 8, !tbaa !3
  %29 = call i32 @fclose(ptr noundef %28)
  store i32 1, ptr %4, align 4
  store i32 1, ptr %9, align 4
  br label %30

30:                                               ; preds = %17, %14
  call void @llvm.lifetime.end.p0(i64 8, ptr %8) #9
  %31 = load i32, ptr %4, align 4
  ret i32 %31
}