; Function Attrs: nounwind uwtable
define range(i32 0, 2) i32 @Io_WriteMoPlaM(ptr noundef %0, ptr noundef readonly captures(none) %1, i32 noundef %2) local_unnamed_addr #0 {
  %4 = tail call noalias ptr @fopen(ptr noundef %1, ptr noundef nonnull @.str.9)
  %5 = icmp eq ptr %4, null
  br i1 %5, label %6, label %9

6:                                                ; preds = %3
  %7 = load ptr, ptr @stdout, align 8, !tbaa !43
  %8 = tail call i64 @fwrite(ptr nonnull @.str.26, i64 47, i64 1, ptr %7)
  br label %16

9:                                                ; preds = %3
  %10 = getelementptr inbounds nuw i8, ptr %0, i64 8
  %11 = load ptr, ptr %10, align 8, !tbaa !51
  %12 = tail call ptr (...) @Extra_TimeStamp() #11
  %13 = tail call i32 (ptr, ptr, ...) @fprintf(ptr noundef nonnull %4, ptr noundef nonnull @.str.11, ptr noundef %11, ptr noundef %12) #11
  %14 = tail call i32 @Io_WriteMoPlaOneM(ptr noundef nonnull %4, ptr noundef %0, i32 noundef %2)
  %15 = tail call i32 @fclose(ptr noundef nonnull %4)
  br label %16

16:                                               ; preds = %9, %6
  %.0 = phi i32 [ 0, %6 ], [ 1, %9 ]
  ret i32 %.0
}